; ModuleID = '45/434.c'
source_filename = "45/434.c"
target datalayout = "e-m:e-p270:32:32-p271:32:32-p272:64:64-i64:64-f80:128-n8:16:32:64-S128"
target triple = "x86_64-pc-linux-gnu"

@.str = private unnamed_addr constant [6 x i8] c"%s %s\00", align 1
@.str.1 = private unnamed_addr constant [4 x i8] c"%d\0A\00", align 1

; Function Attrs: noinline nounwind uwtable
define dso_local i32 @main() #0 {
  %1 = alloca i32, align 4
  %2 = alloca [50 x i8], align 16
  %3 = alloca [50 x i8], align 16
  %4 = alloca i32, align 4
  %5 = alloca i32, align 4
  %6 = alloca i32, align 4
  store i32 0, i32* %1, align 4
  %7 = bitcast [50 x i8]* %2 to i8*
  call void @llvm.memset.p0i8.i64(i8* align 16 %7, i8 0, i64 50, i1 false)
  %8 = bitcast [50 x i8]* %3 to i8*
  call void @llvm.memset.p0i8.i64(i8* align 16 %8, i8 0, i64 50, i1 false)
  %9 = getelementptr inbounds [50 x i8], [50 x i8]* %2, i64 0, i64 0
  %10 = getelementptr inbounds [50 x i8], [50 x i8]* %3, i64 0, i64 0
  %11 = call i32 (i8*, ...) @__isoc99_scanf(i8* getelementptr inbounds ([6 x i8], [6 x i8]* @.str, i64 0, i64 0), i8* %9, i8* %10)
  %12 = getelementptr inbounds [50 x i8], [50 x i8]* %2, i64 0, i64 0
  %13 = call i64 @strlen(i8* %12) #4
  %14 = trunc i64 %13 to i32
  store i32 %14, i32* %6, align 4
  store i32 0, i32* %4, align 4
  br label %15

15:                                               ; preds = %71, %0
  %16 = getelementptr inbounds [50 x i8], [50 x i8]* %3, i64 0, i64 0
  %17 = load i32, i32* %4, align 4
  %18 = sext i32 %17 to i64
  %19 = getelementptr inbounds i8, i8* %16, i64 %18
  %20 = load i8, i8* %19, align 1
  %21 = sext i8 %20 to i32
  %22 = icmp ne i32 %21, 0
  br i1 %22, label %23, label %74

23:                                               ; preds = %15
  %24 = getelementptr inbounds [50 x i8], [50 x i8]* %3, i64 0, i64 0
  %25 = load i32, i32* %4, align 4
  %26 = sext i32 %25 to i64
  %27 = getelementptr inbounds i8, i8* %24, i64 %26
  %28 = load i8, i8* %27, align 1
  %29 = sext i8 %28 to i32
  %30 = getelementptr inbounds [50 x i8], [50 x i8]* %2, i64 0, i64 0
  %31 = load i8, i8* %30, align 16
  %32 = sext i8 %31 to i32
  %33 = icmp eq i32 %29, %32
  br i1 %33, label %34, label %63

34:                                               ; preds = %23
  store i32 0, i32* %5, align 4
  br label %35

35:                                               ; preds = %59, %34
  %36 = load i32, i32* %5, align 4
  %37 = load i32, i32* %6, align 4
  %38 = sub nsw i32 %37, 1
  %39 = icmp sle i32 %36, %38
  br i1 %39, label %40, label %62

40:                                               ; preds = %35
  %41 = getelementptr inbounds [50 x i8], [50 x i8]* %3, i64 0, i64 0
  %42 = load i32, i32* %4, align 4
  %43 = sext i32 %42 to i64
  %44 = getelementptr inbounds i8, i8* %41, i64 %43
  %45 = load i32, i32* %5, align 4
  %46 = sext i32 %45 to i64
  %47 = getelementptr inbounds i8, i8* %44, i64 %46
  %48 = load i8, i8* %47, align 1
  %49 = sext i8 %48 to i32
  %50 = getelementptr inbounds [50 x i8], [50 x i8]* %2, i64 0, i64 0
  %51 = load i32, i32* %5, align 4
  %52 = sext i32 %51 to i64
  %53 = getelementptr inbounds i8, i8* %50, i64 %52
  %54 = load i8, i8* %53, align 1
  %55 = sext i8 %54 to i32
  %56 = icmp ne i32 %49, %55
  br i1 %56, label %57, label %58

57:                                               ; preds = %40
  br label %62

58:                                               ; preds = %40
  br label %59

59:                                               ; preds = %58
  %60 = load i32, i32* %5, align 4
  %61 = add nsw i32 %60, 1
  store i32 %61, i32* %5, align 4
  br label %35

62:                                               ; preds = %57, %35
  br label %63

63:                                               ; preds = %62, %23
  %64 = load i32, i32* %5, align 4
  %65 = load i32, i32* %6, align 4
  %66 = icmp eq i32 %64, %65
  br i1 %66, label %67, label %70

67:                                               ; preds = %63
  %68 = load i32, i32* %4, align 4
  %69 = call i32 (i8*, ...) @printf(i8* getelementptr inbounds ([4 x i8], [4 x i8]* @.str.1, i64 0, i64 0), i32 %68)
  br label %74

70:                                               ; preds = %63
  br label %71

71:                                               ; preds = %70
  %72 = load i32, i32* %4, align 4
  %73 = add nsw i32 %72, 1
  store i32 %73, i32* %4, align 4
  br label %15

74:                                               ; preds = %67, %15
  %75 = load i32, i32* %1, align 4
  ret i32 %75
}

; Function Attrs: argmemonly nounwind willreturn
declare void @llvm.memset.p0i8.i64(i8* nocapture writeonly, i8, i64, i1 immarg) #1

declare dso_local i32 @__isoc99_scanf(i8*, ...) #2

; Function Attrs: nounwind readonly
declare dso_local i64 @strlen(i8*) #3

declare dso_local i32 @printf(i8*, ...) #2


!llvm.module.flags = !{!0}
!llvm.ident = !{!1}

!0 = !{i32 1, !"wchar_size", i32 4}
!1 = !{!"clang version 10.0.0-4ubuntu1 "}
