; ModuleID = 'source-C-CXX/44/434.c'
source_filename = "source-C-CXX/44/434.c"
target datalayout = "e-m:e-p270:32:32-p271:32:32-p272:64:64-i64:64-f80:128-n8:16:32:64-S128"
target triple = "x86_64-pc-linux-gnu"

@.str = private unnamed_addr constant [6 x i8] c"%s %s\00", align 1
@.str.1 = private unnamed_addr constant [4 x i8] c"%d\0A\00", align 1

; Function Attrs: nofree nounwind sspstrong uwtable
define dso_local i32 @main() local_unnamed_addr #0 {
  %1 = alloca [50 x i8], align 16
  %2 = alloca [50 x i8], align 16
  %3 = getelementptr inbounds [50 x i8], [50 x i8]* %1, i64 0, i64 0
  call void @llvm.lifetime.start.p0i8(i64 50, i8* nonnull %3) #5
  call void @llvm.memset.p0i8.i64(i8* noundef nonnull align 16 dereferenceable(50) %3, i8 0, i64 50, i1 false)
  %4 = getelementptr inbounds [50 x i8], [50 x i8]* %2, i64 0, i64 0
  call void @llvm.lifetime.start.p0i8(i64 50, i8* nonnull %4) #5
  call void @llvm.memset.p0i8.i64(i8* noundef nonnull align 16 dereferenceable(50) %4, i8 0, i64 50, i1 false)
  %5 = call i32 (i8*, ...) @__isoc99_scanf(i8* getelementptr inbounds ([6 x i8], [6 x i8]* @.str, i64 0, i64 0), i8* nonnull %3, i8* nonnull %4)
  %6 = call i64 @strlen(i8* noundef nonnull %3) #6
  %7 = trunc i64 %6 to i32
  %8 = load i8, i8* %3, align 16
  %9 = load i8, i8* %4, align 16, !tbaa !5
  %10 = icmp eq i8 %9, 0
  br i1 %10, label %55, label %11

11:                                               ; preds = %0
  %12 = icmp sgt i32 %7, 0
  br i1 %12, label %15, label %13

13:                                               ; preds = %11
  %14 = icmp eq i32 %7, 0
  br label %44

15:                                               ; preds = %11
  %16 = and i64 %6, 4294967295
  br label %17

17:                                               ; preds = %15, %36
  %18 = phi i64 [ 0, %15 ], [ %37, %36 ]
  %19 = phi i8 [ %9, %15 ], [ %39, %36 ]
  %20 = phi i32 [ undef, %15 ], [ %34, %36 ]
  %21 = icmp eq i8 %19, %8
  br i1 %21, label %22, label %33

22:                                               ; preds = %17
  %23 = getelementptr inbounds [50 x i8], [50 x i8]* %2, i64 0, i64 %18
  br label %24

24:                                               ; preds = %22, %41
  %25 = phi i64 [ 0, %22 ], [ %42, %41 ]
  %26 = getelementptr inbounds i8, i8* %23, i64 %25
  %27 = load i8, i8* %26, align 1, !tbaa !5
  %28 = getelementptr inbounds [50 x i8], [50 x i8]* %1, i64 0, i64 %25
  %29 = load i8, i8* %28, align 1, !tbaa !5
  %30 = icmp eq i8 %27, %29
  br i1 %30, label %41, label %31

31:                                               ; preds = %24
  %32 = trunc i64 %25 to i32
  br label %33

33:                                               ; preds = %31, %17
  %34 = phi i32 [ %20, %17 ], [ %32, %31 ]
  %35 = icmp eq i32 %34, %7
  br i1 %35, label %46, label %36

36:                                               ; preds = %33
  %37 = add nuw i64 %18, 1
  %38 = getelementptr inbounds [50 x i8], [50 x i8]* %2, i64 0, i64 %37
  %39 = load i8, i8* %38, align 1, !tbaa !5
  %40 = icmp eq i8 %39, 0
  br i1 %40, label %55, label %17, !llvm.loop !8

41:                                               ; preds = %24
  %42 = add nuw nsw i64 %25, 1
  %43 = icmp eq i64 %42, %16
  br i1 %43, label %46, label %24, !llvm.loop !10

44:                                               ; preds = %13, %50
  %45 = phi i64 [ 0, %13 ], [ %51, %50 ]
  br i1 %14, label %46, label %50

46:                                               ; preds = %44, %33, %41
  %47 = phi i64 [ %18, %41 ], [ %18, %33 ], [ %45, %44 ]
  %48 = trunc i64 %47 to i32
  %49 = call i32 (i8*, ...) @printf(i8* nonnull dereferenceable(1) getelementptr inbounds ([4 x i8], [4 x i8]* @.str.1, i64 0, i64 0), i32 %48)
  br label %55

50:                                               ; preds = %44
  %51 = add nuw i64 %45, 1
  %52 = getelementptr inbounds [50 x i8], [50 x i8]* %2, i64 0, i64 %51
  %53 = load i8, i8* %52, align 1, !tbaa !5
  %54 = icmp eq i8 %53, 0
  br i1 %54, label %55, label %44, !llvm.loop !8

55:                                               ; preds = %50, %36, %0, %46
  call void @llvm.lifetime.end.p0i8(i64 50, i8* nonnull %4) #5
  call void @llvm.lifetime.end.p0i8(i64 50, i8* nonnull %3) #5
  ret i32 0
}

; Function Attrs: argmemonly mustprogress nofree nosync nounwind willreturn
declare void @llvm.lifetime.start.p0i8(i64 immarg, i8* nocapture) #1

; Function Attrs: argmemonly mustprogress nofree nounwind willreturn writeonly
declare void @llvm.memset.p0i8.i64(i8* nocapture writeonly, i8, i64, i1 immarg) #2

; Function Attrs: nofree nounwind
declare noundef i32 @__isoc99_scanf(i8* nocapture noundef readonly, ...) local_unnamed_addr #3

; Function Attrs: argmemonly mustprogress nofree nounwind readonly willreturn
declare i64 @strlen(i8* nocapture) local_unnamed_addr #4

; Function Attrs: nofree nounwind
declare noundef i32 @printf(i8* nocapture noundef readonly, ...) local_unnamed_addr #3

; Function Attrs: argmemonly mustprogress nofree nosync nounwind willreturn
declare void @llvm.lifetime.end.p0i8(i64 immarg, i8* nocapture) #1


!llvm.module.flags = !{!0, !1, !2, !3}
!llvm.ident = !{!4}

!0 = !{i32 1, !"wchar_size", i32 4}
!1 = !{i32 7, !"PIC Level", i32 2}
!2 = !{i32 7, !"PIE Level", i32 2}
!3 = !{i32 7, !"uwtable", i32 1}
!4 = !{!"clang version 13.0.0"}
!5 = !{!6, !6, i64 0}
!6 = !{!"omnipotent char", !7, i64 0}
!7 = !{!"Simple C/C++ TBAA"}
!8 = distinct !{!8, !9}
!9 = !{!"llvm.loop.mustprogress"}
!10 = distinct !{!10, !9}
